; Function Attrs: nounwind uwtable
define hidden ptr @Wayland_GetClipboardData(ptr noundef %0, ptr noundef %1, ptr noundef %2) local_unnamed_addr #0 {
  %4 = getelementptr inbounds nuw i8, ptr %0, i64 1656
  %5 = load ptr, ptr %4, align 8
  %6 = getelementptr inbounds nuw i8, ptr %5, i64 272
  %7 = load ptr, ptr %6, align 8
  %.not = icmp eq ptr %7, null
  br i1 %.not, label %23, label %8

8:                                                ; preds = %3
  %9 = getelementptr inbounds nuw i8, ptr %7, i64 16
  %10 = load ptr, ptr %9, align 8
  %.not17 = icmp eq ptr %10, null
  br i1 %.not17, label %23, label %11

11:                                               ; preds = %8
  %12 = getelementptr inbounds nuw i8, ptr %10, i64 80
  %13 = load ptr, ptr %12, align 8
  %.not18 = icmp eq ptr %13, null
  br i1 %.not18, label %16, label %14

14:                                               ; preds = %11
  %15 = tail call ptr @SDL_GetInternalClipboardData(ptr noundef nonnull %0, ptr noundef %1, ptr noundef %2) #4
  br label %23

16:                                               ; preds = %11
  %17 = getelementptr inbounds nuw i8, ptr %10, i64 40
  %18 = load ptr, ptr %17, align 8
  %19 = tail call zeroext i1 @Wayland_data_offer_has_mime(ptr noundef %18, ptr noundef %1) #4
  br i1 %19, label %20, label %23

20:                                               ; preds = %16
  %21 = load ptr, ptr %17, align 8
  %22 = tail call ptr @Wayland_data_offer_receive(ptr noundef %21, ptr noundef %1, ptr noundef %2) #4
  br label %23

23:                                               ; preds = %14, %20, %16, %8, %3
  %.0 = phi ptr [ null, %8 ], [ null, %3 ], [ %15, %14 ], [ %22, %20 ], [ null, %16 ]
  ret ptr %.0
}